; Function Attrs: mustprogress uwtable
define void @_ZN8proxygen8Sampling10updateRateEd(ptr nocapture noundef nonnull writeonly align 8 dereferenceable(20) %this, double noundef %rate) local_unnamed_addr #0 align 2 personality ptr @__gxx_personality_v0 {
entry:
  %ref.tmp3 = alloca %"class.google::LogMessageFatal", align 8
  %cmp = fcmp ult double %rate, 0.000000e+00
  %cmp2 = fcmp ugt double %rate, 1.000000e+00
  %.not = or i1 %cmp, %cmp2
  br i1 %.not, label %cond.false, label %cleanup.done

cond.false:                                       ; preds = %entry
  call void @_ZN6google15LogMessageFatalC1EPKci(ptr noundef nonnull align 8 dereferenceable(96) %ref.tmp3, ptr noundef nonnull @.str, i32 noundef 27)
  %call = invoke noundef nonnull align 8 dereferenceable(8) ptr @_ZN6google10LogMessage6streamEv(ptr noundef nonnull align 8 dereferenceable(96) %ref.tmp3)
          to label %invoke.cont unwind label %lpad

invoke.cont:                                      ; preds = %cond.false
  %call5 = invoke noundef nonnull align 8 dereferenceable(8) ptr @_ZStlsISt11char_traitsIcEERSt13basic_ostreamIcT_ES5_PKc(ptr noundef nonnull align 8 dereferenceable(8) %call, ptr noundef nonnull @.str.1)
          to label %cleanup.action unwind label %lpad

cleanup.action:                                   ; preds = %invoke.cont
  call void @_ZN6google15LogMessageFatalD1Ev(ptr noundef nonnull align 8 dereferenceable(96) %ref.tmp3) #9
  unreachable

lpad:                                             ; preds = %invoke.cont, %cond.false
  %0 = landingpad { ptr, i32 }
          cleanup
  call void @_ZN6google15LogMessageFatalD1Ev(ptr noundef nonnull align 8 dereferenceable(96) %ref.tmp3) #9
  unreachable

cleanup.done:                                     ; preds = %entry
  %rate_ = getelementptr inbounds i8, ptr %this, i64 8
  store double %rate, ptr %rate_, align 8
  %mul.i = fmul double %rate, 1.000000e+06
  %conv.i = fptoui double %mul.i to i32
  %cmp.i = icmp eq i32 %conv.i, 0
  br i1 %cmp.i, label %_ZN8proxygen8Sampling12rateToWeightEd.exit, label %if.end.i

if.end.i:                                         ; preds = %cleanup.done
  %div.i = udiv i32 1000000, %conv.i
  br label %_ZN8proxygen8Sampling12rateToWeightEd.exit

_ZN8proxygen8Sampling12rateToWeightEd.exit:       ; preds = %cleanup.done, %if.end.i
  %retval.0.i = phi i32 [ %div.i, %if.end.i ], [ 0, %cleanup.done ]
  %weight_ = getelementptr inbounds i8, ptr %this, i64 16
  store i32 %retval.0.i, ptr %weight_, align 8
  ret void
}